; Function Attrs: mustprogress nounwind uwtable
define internal void @"_ZN2rc3GenINSt7__cxx1112basic_stringIcSt11char_traitsIcESaIcEEEE7GenImplINS_3gen6detail9FilterGenIS6_ZNS_9ArbitraryIN3nix13StorePathNameEvE9arbitraryEvE3$_0EEED0Ev"(ptr noundef nonnull align 8 dereferenceable(64) %0) unnamed_addr #5 align 2 personality ptr @__gxx_personality_v0 {
  store ptr getelementptr inbounds ({ [7 x ptr] }, ptr @"_ZTVN2rc3GenINSt7__cxx1112basic_stringIcSt11char_traitsIcESaIcEEEE7GenImplINS_3gen6detail9FilterGenIS6_ZNS_9ArbitraryIN3nix13StorePathNameEvE9arbitraryEvE3$_0EEEE", i64 0, i32 0, i64 2), ptr %0, align 8
  %2 = getelementptr inbounds i8, ptr %0, i64 16
  %3 = load ptr, ptr %2, align 8
  %.not.i.i.i = icmp eq ptr %3, null
  br i1 %.not.i.i.i, label %8, label %4

4:                                                ; preds = %1
  %5 = load ptr, ptr %3, align 8
  %6 = getelementptr inbounds i8, ptr %5, i64 16
  %7 = load ptr, ptr %6, align 8
  invoke void %7(ptr noundef nonnull align 8 dereferenceable(8) %3)
          to label %8 unwind label %16

8:                                                ; preds = %4, %1
  %9 = getelementptr inbounds i8, ptr %0, i64 24
  %10 = load ptr, ptr %9, align 8
  %11 = getelementptr inbounds i8, ptr %0, i64 40
  %12 = icmp eq ptr %10, %11
  br i1 %12, label %_ZNKSt7__cxx1112basic_stringIcSt11char_traitsIcESaIcEE11_M_is_localEv.exit.thread.i.i.i.i.i, label %_ZNKSt7__cxx1112basic_stringIcSt11char_traitsIcESaIcEE11_M_is_localEv.exit.i.i.i.i.i

_ZNKSt7__cxx1112basic_stringIcSt11char_traitsIcESaIcEE11_M_is_localEv.exit.thread.i.i.i.i.i: ; preds = %8
  %13 = getelementptr inbounds i8, ptr %0, i64 32
  %14 = load i64, ptr %13, align 8
  %15 = icmp ult i64 %14, 16
  tail call void @llvm.assume(i1 %15)
  br label %"_ZN2rc3GenINSt7__cxx1112basic_stringIcSt11char_traitsIcESaIcEEEE7GenImplINS_3gen6detail9FilterGenIS6_ZNS_9ArbitraryIN3nix13StorePathNameEvE9arbitraryEvE3$_0EEED2Ev.exit"

_ZNKSt7__cxx1112basic_stringIcSt11char_traitsIcESaIcEE11_M_is_localEv.exit.i.i.i.i.i: ; preds = %8
  tail call void @_ZdlPv(ptr noundef %10) #23
  br label %"_ZN2rc3GenINSt7__cxx1112basic_stringIcSt11char_traitsIcESaIcEEEE7GenImplINS_3gen6detail9FilterGenIS6_ZNS_9ArbitraryIN3nix13StorePathNameEvE9arbitraryEvE3$_0EEED2Ev.exit"

16:                                               ; preds = %4
  %17 = landingpad { ptr, i32 }
          catch ptr null
  %18 = extractvalue { ptr, i32 } %17, 0
  tail call void @__clang_call_terminate(ptr %18) #24
  unreachable

"_ZN2rc3GenINSt7__cxx1112basic_stringIcSt11char_traitsIcESaIcEEEE7GenImplINS_3gen6detail9FilterGenIS6_ZNS_9ArbitraryIN3nix13StorePathNameEvE9arbitraryEvE3$_0EEED2Ev.exit": ; preds = %_ZNKSt7__cxx1112basic_stringIcSt11char_traitsIcESaIcEE11_M_is_localEv.exit.thread.i.i.i.i.i, %_ZNKSt7__cxx1112basic_stringIcSt11char_traitsIcESaIcEE11_M_is_localEv.exit.i.i.i.i.i
  tail call void @_ZNSaIcED2Ev(ptr noundef nonnull align 1 dereferenceable(1) %9) #21
  tail call void @_ZdlPv(ptr noundef nonnull %0) #23
  ret void
}